; Function Attrs: mustprogress nofree norecurse nosync nounwind willreturn memory(argmem: read) uwtable
define i32 @tj3Get(ptr noundef readonly %0, i32 noundef %1) local_unnamed_addr #7 {
  %.not = icmp eq ptr %0, null
  br i1 %.not, label %79, label %3

3:                                                ; preds = %2
  switch i32 %1, label %79 [
    i32 0, label %4
    i32 1, label %7
    i32 2, label %10
    i32 3, label %13
    i32 4, label %16
    i32 5, label %19
    i32 6, label %22
    i32 7, label %25
    i32 8, label %28
    i32 9, label %31
    i32 10, label %34
    i32 11, label %37
    i32 12, label %40
    i32 13, label %43
    i32 14, label %46
    i32 15, label %49
    i32 16, label %52
    i32 17, label %55
    i32 18, label %58
    i32 19, label %61
    i32 20, label %64
    i32 21, label %67
    i32 22, label %70
    i32 23, label %73
    i32 24, label %76
  ]

4:                                                ; preds = %3
  %5 = getelementptr inbounds i8, ptr %0, i64 1532
  %6 = load i32, ptr %5, align 4
  br label %79

7:                                                ; preds = %3
  %8 = getelementptr inbounds i8, ptr %0, i64 1744
  %9 = load i32, ptr %8, align 8
  br label %79

10:                                               ; preds = %3
  %11 = getelementptr inbounds i8, ptr %0, i64 1748
  %12 = load i32, ptr %11, align 4
  br label %79

13:                                               ; preds = %3
  %14 = getelementptr inbounds i8, ptr %0, i64 1752
  %15 = load i32, ptr %14, align 8
  br label %79

16:                                               ; preds = %3
  %17 = getelementptr inbounds i8, ptr %0, i64 1756
  %18 = load i32, ptr %17, align 4
  br label %79

19:                                               ; preds = %3
  %20 = getelementptr inbounds i8, ptr %0, i64 1760
  %21 = load i32, ptr %20, align 8
  br label %79

22:                                               ; preds = %3
  %23 = getelementptr inbounds i8, ptr %0, i64 1764
  %24 = load i32, ptr %23, align 4
  br label %79

25:                                               ; preds = %3
  %26 = getelementptr inbounds i8, ptr %0, i64 1768
  %27 = load i32, ptr %26, align 8
  br label %79

28:                                               ; preds = %3
  %29 = getelementptr inbounds i8, ptr %0, i64 1772
  %30 = load i32, ptr %29, align 4
  br label %79

31:                                               ; preds = %3
  %32 = getelementptr inbounds i8, ptr %0, i64 1776
  %33 = load i32, ptr %32, align 8
  br label %79

34:                                               ; preds = %3
  %35 = getelementptr inbounds i8, ptr %0, i64 1780
  %36 = load i32, ptr %35, align 4
  br label %79

37:                                               ; preds = %3
  %38 = getelementptr inbounds i8, ptr %0, i64 1784
  %39 = load i32, ptr %38, align 8
  br label %79

40:                                               ; preds = %3
  %41 = getelementptr inbounds i8, ptr %0, i64 1788
  %42 = load i32, ptr %41, align 4
  br label %79

43:                                               ; preds = %3
  %44 = getelementptr inbounds i8, ptr %0, i64 1792
  %45 = load i32, ptr %44, align 8
  br label %79

46:                                               ; preds = %3
  %47 = getelementptr inbounds i8, ptr %0, i64 1796
  %48 = load i32, ptr %47, align 4
  br label %79

49:                                               ; preds = %3
  %50 = getelementptr inbounds i8, ptr %0, i64 1800
  %51 = load i32, ptr %50, align 8
  br label %79

52:                                               ; preds = %3
  %53 = getelementptr inbounds i8, ptr %0, i64 1804
  %54 = load i32, ptr %53, align 4
  br label %79

55:                                               ; preds = %3
  %56 = getelementptr inbounds i8, ptr %0, i64 1808
  %57 = load i32, ptr %56, align 8
  br label %79

58:                                               ; preds = %3
  %59 = getelementptr inbounds i8, ptr %0, i64 1812
  %60 = load i32, ptr %59, align 4
  br label %79

61:                                               ; preds = %3
  %62 = getelementptr inbounds i8, ptr %0, i64 1816
  %63 = load i32, ptr %62, align 8
  br label %79

64:                                               ; preds = %3
  %65 = getelementptr inbounds i8, ptr %0, i64 1820
  %66 = load i32, ptr %65, align 4
  br label %79

67:                                               ; preds = %3
  %68 = getelementptr inbounds i8, ptr %0, i64 1824
  %69 = load i32, ptr %68, align 8
  br label %79

70:                                               ; preds = %3
  %71 = getelementptr inbounds i8, ptr %0, i64 1828
  %72 = load i32, ptr %71, align 4
  br label %79

73:                                               ; preds = %3
  %74 = getelementptr inbounds i8, ptr %0, i64 1856
  %75 = load i32, ptr %74, align 8
  br label %79

76:                                               ; preds = %3
  %77 = getelementptr inbounds i8, ptr %0, i64 1860
  %78 = load i32, ptr %77, align 4
  br label %79

79:                                               ; preds = %3, %2, %76, %73, %70, %67, %64, %61, %58, %55, %52, %49, %46, %43, %40, %37, %34, %31, %28, %25, %22, %19, %16, %13, %10, %7, %4
  %.0 = phi i32 [ %78, %76 ], [ %75, %73 ], [ %72, %70 ], [ %69, %67 ], [ %66, %64 ], [ %63, %61 ], [ %60, %58 ], [ %57, %55 ], [ %54, %52 ], [ %51, %49 ], [ %48, %46 ], [ %45, %43 ], [ %42, %40 ], [ %39, %37 ], [ %36, %34 ], [ %33, %31 ], [ %30, %28 ], [ %27, %25 ], [ %24, %22 ], [ %21, %19 ], [ %18, %16 ], [ %15, %13 ], [ %12, %10 ], [ %9, %7 ], [ %6, %4 ], [ -1, %2 ], [ -1, %3 ]
  ret i32 %.0
}